; Function Attrs: mustprogress nofree norecurse nosync nounwind willreturn memory(read, inaccessiblemem: none) uwtable
define noundef zeroext i1 @_ZNK7Imf_3_419DeepTiledOutputFile11isValidTileEiiii(ptr noundef nonnull readonly align 8 captures(none) dereferenceable(16) %0, i32 noundef %1, i32 noundef %2, i32 noundef %3, i32 noundef %4) local_unnamed_addr #17 align 2 {
  %6 = getelementptr inbounds nuw i8, ptr %0, i64 8
  %7 = load ptr, ptr %6, align 8, !tbaa !126
  %8 = getelementptr inbounds nuw i8, ptr %7, i64 212
  %9 = load i32, ptr %8, align 4, !tbaa !162
  %10 = icmp slt i32 %3, %9
  %11 = icmp sgt i32 %3, -1
  %or.cond = and i1 %11, %10
  br i1 %or.cond, label %12, label %34

12:                                               ; preds = %5
  %13 = getelementptr inbounds nuw i8, ptr %7, i64 216
  %14 = load i32, ptr %13, align 8, !tbaa !163
  %15 = icmp slt i32 %4, %14
  %16 = icmp sgt i32 %4, -1
  %or.cond3 = and i1 %16, %15
  br i1 %or.cond3, label %17, label %34

17:                                               ; preds = %12
  %18 = getelementptr inbounds nuw i8, ptr %7, i64 224
  %19 = load ptr, ptr %18, align 8, !tbaa !94
  %20 = zext nneg i32 %3 to i64
  %21 = getelementptr inbounds nuw i32, ptr %19, i64 %20
  %22 = load i32, ptr %21, align 4, !tbaa !142
  %23 = icmp slt i32 %1, %22
  %24 = icmp sgt i32 %1, -1
  %or.cond5 = and i1 %24, %23
  br i1 %or.cond5, label %25, label %34

25:                                               ; preds = %17
  %26 = getelementptr inbounds nuw i8, ptr %7, i64 232
  %27 = load ptr, ptr %26, align 8, !tbaa !95
  %28 = zext nneg i32 %4 to i64
  %29 = getelementptr inbounds nuw i32, ptr %27, i64 %28
  %30 = load i32, ptr %29, align 4, !tbaa !142
  %31 = icmp slt i32 %2, %30
  %32 = icmp sgt i32 %2, -1
  %33 = and i1 %32, %31
  br label %34

34:                                               ; preds = %25, %17, %12, %5
  %35 = phi i1 [ false, %17 ], [ false, %12 ], [ false, %5 ], [ %33, %25 ]
  ret i1 %35
}